target datalayout = "e-m:e-p270:32:32-p271:32:32-p272:64:64-i64:64-i128:128-f80:128-n8:16:32:64-S128"
target triple = "x86_64-pc-linux-gnu"

; Function Attrs: mustprogress uwtable
define hidden noundef zeroext i1 @_ZN7testing8internal15UnitTestOptions20PatternMatchesStringEPKcS3_(ptr noundef %0, ptr noundef %1) #4 align 2 {
  %3 = alloca i1, align 1
  %4 = alloca ptr, align 8
  %5 = alloca ptr, align 8
  store ptr %0, ptr %4, align 8
  store ptr %1, ptr %5, align 8
  %6 = load ptr, ptr %4, align 8
  %7 = load i8, ptr %6, align 1
  %8 = sext i8 %7 to i32
  switch i32 %8, label %44 [
    i32 0, label %9
    i32 58, label %9
    i32 63, label %14
    i32 42, label %27
  ]

9:                                                ; preds = %2, %2
  %10 = load ptr, ptr %5, align 8
  %11 = load i8, ptr %10, align 1
  %12 = sext i8 %11 to i32
  %13 = icmp eq i32 %12, 0
  store i1 %13, ptr %3, align 1
  br label %60

14:                                               ; preds = %2
  %15 = load ptr, ptr %5, align 8
  %16 = load i8, ptr %15, align 1
  %17 = sext i8 %16 to i32
  %18 = icmp ne i32 %17, 0
  br i1 %18, label %19, label %25

19:                                               ; preds = %14
  %20 = load ptr, ptr %4, align 8
  %21 = getelementptr inbounds i8, ptr %20, i64 1
  %22 = load ptr, ptr %5, align 8
  %23 = getelementptr inbounds i8, ptr %22, i64 1
  %24 = call noundef zeroext i1 @_ZN7testing8internal15UnitTestOptions20PatternMatchesStringEPKcS3_(ptr noundef %21, ptr noundef %23)
  br label %25

25:                                               ; preds = %19, %14
  %26 = phi i1 [ false, %14 ], [ %24, %19 ]
  store i1 %26, ptr %3, align 1
  br label %60

27:                                               ; preds = %2
  %28 = load ptr, ptr %5, align 8
  %29 = load i8, ptr %28, align 1
  %30 = sext i8 %29 to i32
  %31 = icmp ne i32 %30, 0
  br i1 %31, label %32, label %37

32:                                               ; preds = %27
  %33 = load ptr, ptr %4, align 8
  %34 = load ptr, ptr %5, align 8
  %35 = getelementptr inbounds i8, ptr %34, i64 1
  %36 = call noundef zeroext i1 @_ZN7testing8internal15UnitTestOptions20PatternMatchesStringEPKcS3_(ptr noundef %33, ptr noundef %35)
  br i1 %36, label %42, label %37

37:                                               ; preds = %32, %27
  %38 = load ptr, ptr %4, align 8
  %39 = getelementptr inbounds i8, ptr %38, i64 1
  %40 = load ptr, ptr %5, align 8
  %41 = call noundef zeroext i1 @_ZN7testing8internal15UnitTestOptions20PatternMatchesStringEPKcS3_(ptr noundef %39, ptr noundef %40)
  br label %42

42:                                               ; preds = %37, %32
  %43 = phi i1 [ true, %32 ], [ %41, %37 ]
  store i1 %43, ptr %3, align 1
  br label %60

44:                                               ; preds = %2
  %45 = load ptr, ptr %4, align 8
  %46 = load i8, ptr %45, align 1
  %47 = sext i8 %46 to i32
  %48 = load ptr, ptr %5, align 8
  %49 = load i8, ptr %48, align 1
  %50 = sext i8 %49 to i32
  %51 = icmp eq i32 %47, %50
  br i1 %51, label %52, label %58

52:                                               ; preds = %44
  %53 = load ptr, ptr %4, align 8
  %54 = getelementptr inbounds i8, ptr %53, i64 1
  %55 = load ptr, ptr %5, align 8
  %56 = getelementptr inbounds i8, ptr %55, i64 1
  %57 = call noundef zeroext i1 @_ZN7testing8internal15UnitTestOptions20PatternMatchesStringEPKcS3_(ptr noundef %54, ptr noundef %56)
  br label %58

58:                                               ; preds = %52, %44
  %59 = phi i1 [ false, %44 ], [ %57, %52 ]
  store i1 %59, ptr %3, align 1
  br label %60

60:                                               ; preds = %58, %42, %25, %9
  %61 = load i1, ptr %3, align 1
  ret i1 %61
}