; Function Attrs: mustprogress nofree nosync nounwind willreturn memory(argmem: read) uwtable
define hidden noundef zeroext i1 @_ZN7testing8internal15UnitTestOptions20PatternMatchesStringEPKcS3_(ptr noundef readonly captures(none) %0, ptr noundef readonly captures(none) %1) local_unnamed_addr #12 align 2 {
  br label %tailrecurse.outer

tailrecurse.outer:                                ; preds = %tailrecurse.outer.backedge, %2
  %.tr.ph = phi ptr [ %0, %2 ], [ %.tr.ph.be, %tailrecurse.outer.backedge ]
  %.tr16.ph = phi ptr [ %1, %2 ], [ %3, %tailrecurse.outer.backedge ]
  %3 = getelementptr inbounds nuw i8, ptr %.tr16.ph, i64 1
  br label %tailrecurse

tailrecurse:                                      ; preds = %tailrecurse.outer, %14
  %.tr = phi ptr [ %15, %14 ], [ %.tr.ph, %tailrecurse.outer ]
  %4 = load i8, ptr %.tr, align 1
  switch i8 %4, label %16 [
    i8 0, label %5
    i8 58, label %5
    i8 63, label %8
    i8 42, label %10
  ]

5:                                                ; preds = %tailrecurse, %tailrecurse
  %6 = load i8, ptr %.tr16.ph, align 1
  %7 = icmp eq i8 %6, 0
  br label %.loopexit

8:                                                ; preds = %tailrecurse
  %9 = load i8, ptr %.tr16.ph, align 1
  %.not15 = icmp eq i8 %9, 0
  br i1 %.not15, label %.loopexit, label %tailrecurse.outer.backedge

tailrecurse.outer.backedge:                       ; preds = %16, %8
  %.tr.ph.be = getelementptr inbounds nuw i8, ptr %.tr, i64 1
  br label %tailrecurse.outer

10:                                               ; preds = %tailrecurse
  %11 = load i8, ptr %.tr16.ph, align 1
  %.not = icmp eq i8 %11, 0
  br i1 %.not, label %14, label %12

12:                                               ; preds = %10
  %13 = tail call noundef zeroext i1 @_ZN7testing8internal15UnitTestOptions20PatternMatchesStringEPKcS3_(ptr noundef nonnull %.tr, ptr noundef nonnull %3)
  br i1 %13, label %.loopexit, label %14

14:                                               ; preds = %12, %10
  %15 = getelementptr inbounds nuw i8, ptr %.tr, i64 1
  br label %tailrecurse

16:                                               ; preds = %tailrecurse
  %17 = load i8, ptr %.tr16.ph, align 1
  %18 = icmp eq i8 %4, %17
  br i1 %18, label %tailrecurse.outer.backedge, label %.loopexit

.loopexit:                                        ; preds = %16, %8, %12, %5
  %.0 = phi i1 [ %7, %5 ], [ true, %12 ], [ false, %8 ], [ false, %16 ]
  ret i1 %.0
}